target datalayout = "e-m:e-p270:32:32-p271:32:32-p272:64:64-i64:64-i128:128-f80:128-n8:16:32:64-S128"
target triple = "x86_64-pc-linux-gnu"

%class.G1ServiceTask = type { ptr, i64, ptr, ptr, ptr }
%class.G1ServiceTaskQueue = type { %class.G1SentinelTask }
%class.G1SentinelTask = type { %class.G1ServiceTask }

@_ZN14G1SentinelTaskC1Ev = hidden unnamed_addr alias void (ptr), ptr @_ZN14G1SentinelTaskC2Ev

; Function Attrs: mustprogress nounwind uwtable
define hidden void @_ZN18G1ServiceTaskQueueC2Ev(ptr noundef nonnull align 8 dereferenceable(40) %0) unnamed_addr #1 align 2 {
  %2 = alloca ptr, align 8
  store ptr %0, ptr %2, align 8
  %3 = load ptr, ptr %2, align 8
  %4 = getelementptr inbounds %class.G1ServiceTaskQueue, ptr %3, i32 0, i32 0
  call void @_ZN14G1SentinelTaskC1Ev(ptr noundef nonnull align 8 dereferenceable(40) %4)
  ret void
}