; Function Attrs: mustprogress nofree norecurse nosync nounwind willreturn memory(argmem: write) uwtable
define hidden void @_ZN18G1ServiceTaskQueueC2Ev(ptr noundef nonnull align 8 dereferenceable(40) %0) unnamed_addr #0 align 2 {
  %2 = getelementptr inbounds i8, ptr %0, i64 8
  %3 = getelementptr inbounds i8, ptr %0, i64 16
  store ptr @.str, ptr %3, align 8
  %4 = getelementptr inbounds i8, ptr %0, i64 24
  %5 = getelementptr inbounds i8, ptr %0, i64 32
  store i64 0, ptr %5, align 8
  store ptr getelementptr inbounds inrange(-16, 8) (i8, ptr @_ZTV14G1SentinelTask, i64 16), ptr %0, align 8
  store i64 9223372036854775807, ptr %2, align 8
  store ptr %0, ptr %4, align 8
  ret void
}